target datalayout = "e-m:e-p270:32:32-p271:32:32-p272:64:64-i64:64-i128:128-f80:128-n8:16:32:64-S128"
target triple = "x86_64-pc-linux-gnu"

%struct.__va_list_tag = type { i32, i32, ptr, ptr }

@rawerrorstream = external global ptr, align 8
@rawattrstream = external global ptr, align 8
@rawdatastream = external global ptr, align 8
@rawoutstream = external global ptr, align 8
@.str.2 = private unnamed_addr constant [13 x i8] c"%s warning: \00", align 1
@h5tools_progname = internal global ptr @.str.22, align 8

; Function Attrs: nounwind uwtable
define ptr @h5tools_getprogname() #0 {
  %1 = load ptr, ptr @h5tools_progname, align 8
  ret ptr %1
}

; Function Attrs: nounwind uwtable
define void @warn_msg(ptr noundef %0, ...) #0 {
  %2 = alloca ptr, align 8
  %3 = alloca [1 x %struct.__va_list_tag], align 16
  store ptr %0, ptr %2, align 8
  %4 = getelementptr inbounds [1 x %struct.__va_list_tag], ptr %3, i64 0, i64 0
  call void @llvm.va_start.p0(ptr %4)
  %5 = load ptr, ptr @rawattrstream, align 8
  %6 = icmp ne ptr %5, null
  br i1 %6, label %7, label %10

7:                                                ; preds = %1
  %8 = load ptr, ptr @rawattrstream, align 8
  %9 = call i32 @fflush(ptr noundef %8)
  br label %10

10:                                               ; preds = %7, %1
  %11 = load ptr, ptr @rawdatastream, align 8
  %12 = icmp ne ptr %11, null
  br i1 %12, label %13, label %16

13:                                               ; preds = %10
  %14 = load ptr, ptr @rawdatastream, align 8
  %15 = call i32 @fflush(ptr noundef %14)
  br label %16

16:                                               ; preds = %13, %10
  %17 = load ptr, ptr @rawoutstream, align 8
  %18 = icmp ne ptr %17, null
  br i1 %18, label %19, label %22

19:                                               ; preds = %16
  %20 = load ptr, ptr @rawoutstream, align 8
  %21 = call i32 @fflush(ptr noundef %20)
  br label %22

22:                                               ; preds = %19, %16
  %23 = load ptr, ptr @rawerrorstream, align 8
  %24 = call ptr @h5tools_getprogname()
  %25 = call i32 (ptr, ptr, ...) @fprintf(ptr noundef %23, ptr noundef @.str.2, ptr noundef %24) #12
  %26 = load ptr, ptr @rawerrorstream, align 8
  %27 = load ptr, ptr %2, align 8
  %28 = getelementptr inbounds [1 x %struct.__va_list_tag], ptr %3, i64 0, i64 0
  %29 = call i32 @vfprintf(ptr noundef %26, ptr noundef %27, ptr noundef %28) #12
  %30 = getelementptr inbounds [1 x %struct.__va_list_tag], ptr %3, i64 0, i64 0
  call void @llvm.va_end.p0(ptr %30)
  ret void
}